(lp1
(F9.7312485174456818
F3.5238784877146245
tp2
a(F4.3863405781161315
F1.7969975546594097
tp3
a(F1.7239163395099566
F5.4845027527844712
tp4
a(F6.8767804495443023
F3.3370655266112061
tp5
a(F0.89292427347679504
F5.0285507502444879
tp6
a(F0.79396789634097353
F4.8997623086244282
tp7
a(F9.4014517550593641
F8.5347801896636497
tp8
a(F5.0741311163705829
F5.1534688134034123
tp9
a(F8.995592182725872
F7.8044009100403393
tp10
a(F4.7797924447976499
F9.47053959731495
tp11
a(F8.913170212061047
F8.1787045446453064
tp12
a(F6.2231914884793955
F6.4424301333607943
tp13
a(F1.5620262446526612
F7.7976429464852783
tp14
a(F6.453746430250364
F7.7611889425252159
tp15
a(F7.9608306144540677
F2.8737583574876258
tp16
a(F9.4187059192001055
F6.7931727361249372
tp17
a(F8.3624566290987907
F4.359291248244979
tp18
a(F7.7885024166144152
F1.4761898340821555
tp19
a(F5.3809267341027676
F5.9007267180354104
tp20
a(F4.6255428516158359
F0.77180297464824132
tp21
a(F8.788410442747562
F6.3483552905453786
tp22
a(F1.5477397123881531
F9.2139330787838816
tp23
a(F8.0637439431000306
F2.6999207927913083
tp24
a(F1.6467617403430057
F5.027025111349575
tp25
a(F7.8005257262154784
F0.70435728583098212
tp26
a(F6.8251643249213032
F1.171029353598062
tp27
a(F9.8717326301081574
F3.6191141647070815
tp28
a(F8.4925895073183764
F0.95085680649419579
tp29
a(F6.5134191903201284
F0.88911562237141695
tp30
a(F8.7902885347320243
F2.5273843926077486
tp31
a(F7.0852534205965645
F2.6101183490167346
tp32
a(F4.9316102522430203
F8.5670926471310178
tp33
a(F7.6283641163925342
F1.6717808099197329
tp34
a(F7.701256276969735
F1.6735393758322437
tp35
a(F6.8381654105640974
F7.3592040791528159
tp36
a(F8.1333755803038272
F2.6189364391237104
tp37
a(F3.6992692649256065
F5.7750981021085739
tp38
a(F2.6752531552936523
F3.9814905518588004
tp39
a(F6.9966422045967089
F7.5904675035140716
tp40
a(F4.9871085317006223
F5.3640689662277889
tp41
a(F0.71131275280558404
F0.095335653526482655
tp42
a(F3.4290467110984157
F4.9299919428631789
tp43
a(F3.9711003888632379
F4.555937620413447
tp44
a(F8.5247523522149731
F2.6336490960385928
tp45
a(F3.1315747758112353
F4.3300626317498567
tp46
a(F9.6209890279063366
F9.2869959381283635
tp47
a(F6.9917618543734488
F8.8028075002649739
tp48
a(F3.1280825016844993
F9.72981344566141
tp49
a(F5.3728521338363642
F1.1138381564039035
tp50
a(F8.8201850704489146
F2.3350764625925668
tp51
a(F9.7725039102619
F5.8866026625612804
tp52
a(F2.320996899945774
F3.2039393835162699
tp53
a(F6.4977946019967368
F3.4396534757062138
tp54
a(F6.5321500747133072
F5.7992755104014204
tp55
a(F5.94306187007688
F2.3978313469600696
tp56
a(F7.5940398420426094
F6.2732605525862226
tp57
a(F5.0536507392461827
F0.43730241313576057
tp58
a(F2.3124491570539019
F8.718835017137609
tp59
a(F5.6915056871603822
F1.2034912188077862
tp60
a(F9.3408139123799803
F2.0707976788546487
tp61
a(F7.5985442549868765
F6.442295995445865
tp62
a(F7.7983626675894238
F1.5282020784424577
tp63
a(F8.6085216860297997
F1.0342120875139815
tp64
a(F2.0204510087367167
F0.22382846332070661
tp65
a(F3.1543085238203217
F7.4948865419246458
tp66
a(F2.1492362158325076
F4.4993929624820783
tp67
a(F9.2825710587684629
F1.109405708699861
tp68
a(F2.5820901748344074
F6.4168548299818218
tp69
a(F3.3255303514945576
F5.1865436763377195
tp70
a(F1.945760844746437
F8.379770059101304
tp71
a(F6.9536249474711216
F8.0823625700640189
tp72
a(F5.375613297491971
F6.4337342739992254
tp73
a(F2.3782652521851833
F6.6977475569169167
tp74
a(F9.4795346859686145
F4.7226826469898819
tp75
a(F9.0497557580992805
F6.1390338159920566
tp76
a(F5.96186500562884
F5.8317358826800803
tp77
a(F9.828090612614174
F0.35983976535105988
tp78
a(F6.7580436606845948
F7.4712904707519803
tp79
a(F4.4190575540020784
F4.8397224538490624
tp80
a(F5.1941200991962244
F8.1278729754958281
tp81
a(F4.9272543938718236
F3.5723756255188963
tp82
a(F9.0278922042507563
F0.53462559907305085
tp83
a(F8.9211054810669097
F4.5752915801783764
tp84
a(F0.3045390910302781
F5.2137174679038898
tp85
a(F4.7945246847728038
F1.735113263144018
tp86
a(F3.7461780750763163
F8.4644625566502061
tp87
a(F6.8915787378487625
F4.9684345428903445
tp88
a(F5.9457067430593042
F7.6815740145447116
tp89
a(F9.8034326163267256
F4.2423515165042067
tp90
a(F7.2959203681208891
F6.952814264488234
tp91
a(F2.7863160185260085
F8.6528554101388107
tp92
a(F0.87260650754247049
F7.8298411121983813
tp93
a(F6.8229478886809227
F7.6955167717674708
tp94
a(F0.41613140418032657
F1.8184271167700627
tp95
a(F0.46148624609602895
F5.2361836906204857
tp96
a(F7.109219045847869
F8.3312776490224945
tp97
a(F3.810614426612573
F1.7368576351091558
tp98
a(F7.8114767455491751
F0.54462311846063982
tp99
a(F8.3146106290190946
F4.4573631964156668
tp100
a(F1.5147826751695115
F7.3701750096048002
tp101
a.